target datalayout = "e-m:e-p270:32:32-p271:32:32-p272:64:64-i64:64-i128:128-f80:128-n8:16:32:64-S128"
target triple = "x86_64-pc-linux-gnu"

%"class.std::__cxx11::basic_string" = type { %"struct.std::__cxx11::basic_string<char>::_Alloc_hider", i64, %union.anon.49 }
%"struct.std::__cxx11::basic_string<char>::_Alloc_hider" = type { ptr }
%union.anon.49 = type { i64, [8 x i8] }
%"class.llvm::SmallVectorBase" = type { ptr, i32, i32 }
%"class.clang::ento::BugReport" = type { ptr, i32, ptr, %"class.std::__cxx11::basic_string", %"class.std::__cxx11::basic_string", %"class.llvm::SmallVector.379", %"class.llvm::SmallVector.384", %"class.llvm::SmallVector.389" }
%"class.llvm::SmallVector.379" = type { %"class.llvm::SmallVectorImpl.380", %"struct.llvm::SmallVectorStorage.383" }
%"class.llvm::SmallVectorImpl.380" = type { %"class.llvm::SmallVectorTemplateBase.381" }
%"class.llvm::SmallVectorTemplateBase.381" = type { %"class.llvm::SmallVectorTemplateCommon.382" }
%"class.llvm::SmallVectorTemplateCommon.382" = type { %"class.llvm::SmallVectorBase" }
%"struct.llvm::SmallVectorStorage.383" = type { [32 x i8] }
%"class.llvm::SmallVector.384" = type { %"class.llvm::SmallVectorImpl.385", %"struct.llvm::SmallVectorStorage.388" }
%"class.llvm::SmallVectorImpl.385" = type { %"class.llvm::SmallVectorTemplateBase.386" }
%"class.llvm::SmallVectorTemplateBase.386" = type { %"class.llvm::SmallVectorTemplateCommon.387" }
%"class.llvm::SmallVectorTemplateCommon.387" = type { %"class.llvm::SmallVectorBase" }
%"struct.llvm::SmallVectorStorage.388" = type { [64 x i8] }
%"class.llvm::SmallVector.389" = type { %"class.llvm::SmallVectorImpl.390", %"struct.llvm::SmallVectorStorage.393" }
%"class.llvm::SmallVectorImpl.390" = type { %"class.llvm::SmallVectorTemplateBase.391" }
%"class.llvm::SmallVectorTemplateBase.391" = type { %"class.llvm::SmallVectorTemplateCommon.392" }
%"class.llvm::SmallVectorTemplateCommon.392" = type { %"class.llvm::SmallVectorBase" }
%"struct.llvm::SmallVectorStorage.393" = type { [256 x i8] }
%class.anon.819 = type { ptr, ptr }

; Function Attrs: mustprogress nounwind uwtable
define linkonce_odr hidden noundef nonnull align 8 dereferenceable(97) ptr @_ZNK5clang4ento9BugReport10getBugTypeEv(ptr noundef nonnull align 8 dereferenceable(488) %0) #0 comdat align 2 {
  %2 = alloca ptr, align 8
  store ptr %0, ptr %2, align 8
  %3 = load ptr, ptr %2, align 8
  %4 = getelementptr inbounds nuw %"class.clang::ento::BugReport", ptr %3, i32 0, i32 2
  %5 = load ptr, ptr %4, align 8
  ret ptr %5
}

; Function Attrs: mustprogress nounwind uwtable
define internal void @"_ZZNK12_GLOBAL__N_116SmartPtrModeling10handleSwapEN4llvm18IntrusiveRefCntPtrIKN5clang4ento12ProgramStateEEENS4_4SValES8_RNS4_14CheckerContextEENK3$_0clERNS4_22PathSensitiveBugReportERNS1_11raw_ostreamE"(ptr noundef nonnull align 8 dereferenceable(16) %0, ptr noundef nonnull align 8 dereferenceable(1016) %1, ptr noundef nonnull align 8 dereferenceable(48) %2) #0 align 2 {
  %4 = alloca ptr, align 8
  %5 = alloca ptr, align 8
  %6 = alloca ptr, align 8
  store ptr %0, ptr %4, align 8
  store ptr %1, ptr %5, align 8
  store ptr %2, ptr %6, align 8
  %7 = load ptr, ptr %4, align 8
  %8 = load ptr, ptr %5, align 8
  %9 = call noundef nonnull align 8 dereferenceable(97) ptr @_ZNK5clang4ento9BugReport10getBugTypeEv(ptr noundef nonnull align 8 dereferenceable(488) %8)
  %10 = call noundef ptr @_ZN5clang4ento8smartptr25getNullDereferenceBugTypeEv()
  %11 = icmp ne ptr %9, %10
  br i1 %11, label %12, label %13

12:                                               ; preds = %3
  br label %47

13:                                               ; preds = %3
  %14 = load ptr, ptr %5, align 8
  %15 = getelementptr inbounds nuw %class.anon.819, ptr %7, i32 0, i32 0
  %16 = load ptr, ptr %15, align 8
  %17 = call noundef zeroext i1 @_ZNK5clang4ento22PathSensitiveBugReport13isInterestingEPKNS0_9MemRegionE(ptr noundef nonnull align 8 dereferenceable(1016) %14, ptr noundef %16)
  br i1 %17, label %18, label %30

18:                                               ; preds = %13
  %19 = load ptr, ptr %5, align 8
  %20 = getelementptr inbounds nuw %class.anon.819, ptr %7, i32 0, i32 1
  %21 = load ptr, ptr %20, align 8
  %22 = call noundef zeroext i1 @_ZNK5clang4ento22PathSensitiveBugReport13isInterestingEPKNS0_9MemRegionE(ptr noundef nonnull align 8 dereferenceable(1016) %19, ptr noundef %21)
  br i1 %22, label %30, label %23

23:                                               ; preds = %18
  %24 = load ptr, ptr %5, align 8
  %25 = getelementptr inbounds nuw %class.anon.819, ptr %7, i32 0, i32 1
  %26 = load ptr, ptr %25, align 8
  call void @_ZN5clang4ento22PathSensitiveBugReport15markInterestingEPKNS0_9MemRegionENS0_11bugreporter12TrackingKindE(ptr noundef nonnull align 8 dereferenceable(1016) %24, ptr noundef %26, i32 noundef 0)
  %27 = load ptr, ptr %5, align 8
  %28 = getelementptr inbounds nuw %class.anon.819, ptr %7, i32 0, i32 0
  %29 = load ptr, ptr %28, align 8
  call void @_ZN5clang4ento22PathSensitiveBugReport18markNotInterestingEPKNS0_9MemRegionE(ptr noundef nonnull align 8 dereferenceable(1016) %27, ptr noundef %29)
  br label %30

30:                                               ; preds = %23, %18, %13
  %31 = load ptr, ptr %5, align 8
  %32 = getelementptr inbounds nuw %class.anon.819, ptr %7, i32 0, i32 1
  %33 = load ptr, ptr %32, align 8
  %34 = call noundef zeroext i1 @_ZNK5clang4ento22PathSensitiveBugReport13isInterestingEPKNS0_9MemRegionE(ptr noundef nonnull align 8 dereferenceable(1016) %31, ptr noundef %33)
  br i1 %34, label %35, label %47

35:                                               ; preds = %30
  %36 = load ptr, ptr %5, align 8
  %37 = getelementptr inbounds nuw %class.anon.819, ptr %7, i32 0, i32 0
  %38 = load ptr, ptr %37, align 8
  %39 = call noundef zeroext i1 @_ZNK5clang4ento22PathSensitiveBugReport13isInterestingEPKNS0_9MemRegionE(ptr noundef nonnull align 8 dereferenceable(1016) %36, ptr noundef %38)
  br i1 %39, label %47, label %40

40:                                               ; preds = %35
  %41 = load ptr, ptr %5, align 8
  %42 = getelementptr inbounds nuw %class.anon.819, ptr %7, i32 0, i32 0
  %43 = load ptr, ptr %42, align 8
  call void @_ZN5clang4ento22PathSensitiveBugReport15markInterestingEPKNS0_9MemRegionENS0_11bugreporter12TrackingKindE(ptr noundef nonnull align 8 dereferenceable(1016) %41, ptr noundef %43, i32 noundef 0)
  %44 = load ptr, ptr %5, align 8
  %45 = getelementptr inbounds nuw %class.anon.819, ptr %7, i32 0, i32 1
  %46 = load ptr, ptr %45, align 8
  call void @_ZN5clang4ento22PathSensitiveBugReport18markNotInterestingEPKNS0_9MemRegionE(ptr noundef nonnull align 8 dereferenceable(1016) %44, ptr noundef %46)
  br label %47

47:                                               ; preds = %40, %35, %30, %12
  ret void
}

; Function Attrs: mustprogress nounwind uwtable
define linkonce_odr hidden noundef ptr @_ZNKSt9_Any_data9_M_accessEv(ptr noundef nonnull align 8 dereferenceable(16) %0) #0 comdat align 2 {
  %2 = alloca ptr, align 8
  store ptr %0, ptr %2, align 8
  %3 = load ptr, ptr %2, align 8
  %4 = getelementptr inbounds [16 x i8], ptr %3, i64 0, i64 0
  ret ptr %4
}

; Function Attrs: mustprogress nounwind uwtable
define internal void @"_ZSt13__invoke_implIvRZNK12_GLOBAL__N_116SmartPtrModeling10handleSwapEN4llvm18IntrusiveRefCntPtrIKN5clang4ento12ProgramStateEEENS5_4SValES9_RNS5_14CheckerContextEE3$_0JRNS5_22PathSensitiveBugReportERNS2_11raw_ostreamEEET_St14__invoke_otherOT0_DpOT1_"(ptr noundef nonnull align 8 dereferenceable(16) %0, ptr noundef nonnull align 8 dereferenceable(1016) %1, ptr noundef nonnull align 8 dereferenceable(48) %2) #0 {
  %4 = alloca ptr, align 8
  %5 = alloca ptr, align 8
  %6 = alloca ptr, align 8
  store ptr %0, ptr %4, align 8
  store ptr %1, ptr %5, align 8
  store ptr %2, ptr %6, align 8
  %7 = load ptr, ptr %4, align 8
  %8 = load ptr, ptr %5, align 8
  %9 = load ptr, ptr %6, align 8
  call void @"_ZZNK12_GLOBAL__N_116SmartPtrModeling10handleSwapEN4llvm18IntrusiveRefCntPtrIKN5clang4ento12ProgramStateEEENS4_4SValES8_RNS4_14CheckerContextEENK3$_0clERNS4_22PathSensitiveBugReportERNS1_11raw_ostreamE"(ptr noundef nonnull align 8 dereferenceable(16) %7, ptr noundef nonnull align 8 dereferenceable(1016) %8, ptr noundef nonnull align 8 dereferenceable(48) %9)
  ret void
}

; Function Attrs: mustprogress nounwind uwtable
define internal noundef nonnull align 8 dereferenceable(16) ptr @"_ZNKSt9_Any_data9_M_accessIZNK12_GLOBAL__N_116SmartPtrModeling10handleSwapEN4llvm18IntrusiveRefCntPtrIKN5clang4ento12ProgramStateEEENS6_4SValESA_RNS6_14CheckerContextEE3$_0EERKT_v"(ptr noundef nonnull align 8 dereferenceable(16) %0) #0 align 2 {
  %2 = alloca ptr, align 8
  store ptr %0, ptr %2, align 8
  %3 = load ptr, ptr %2, align 8
  %4 = call noundef ptr @_ZNKSt9_Any_data9_M_accessEv(ptr noundef nonnull align 8 dereferenceable(16) %3) #11
  ret ptr %4
}

; Function Attrs: mustprogress nounwind uwtable
define internal void @"_ZSt10__invoke_rIvRZNK12_GLOBAL__N_116SmartPtrModeling10handleSwapEN4llvm18IntrusiveRefCntPtrIKN5clang4ento12ProgramStateEEENS5_4SValES9_RNS5_14CheckerContextEE3$_0JRNS5_22PathSensitiveBugReportERNS2_11raw_ostreamEEENSt9enable_ifIX16is_invocable_r_vIT_T0_DpT1_EESJ_E4typeEOSK_DpOSL_"(ptr noundef nonnull align 8 dereferenceable(16) %0, ptr noundef nonnull align 8 dereferenceable(1016) %1, ptr noundef nonnull align 8 dereferenceable(48) %2) #0 {
  %4 = alloca ptr, align 8
  %5 = alloca ptr, align 8
  %6 = alloca ptr, align 8
  store ptr %0, ptr %4, align 8
  store ptr %1, ptr %5, align 8
  store ptr %2, ptr %6, align 8
  %7 = load ptr, ptr %4, align 8
  %8 = load ptr, ptr %5, align 8
  %9 = load ptr, ptr %6, align 8
  call void @"_ZSt13__invoke_implIvRZNK12_GLOBAL__N_116SmartPtrModeling10handleSwapEN4llvm18IntrusiveRefCntPtrIKN5clang4ento12ProgramStateEEENS5_4SValES9_RNS5_14CheckerContextEE3$_0JRNS5_22PathSensitiveBugReportERNS2_11raw_ostreamEEET_St14__invoke_otherOT0_DpOT1_"(ptr noundef nonnull align 8 dereferenceable(16) %7, ptr noundef nonnull align 8 dereferenceable(1016) %8, ptr noundef nonnull align 8 dereferenceable(48) %9)
  ret void
}

; Function Attrs: mustprogress nounwind uwtable
define internal noundef ptr @"_ZNSt14_Function_base13_Base_managerIZNK12_GLOBAL__N_116SmartPtrModeling10handleSwapEN4llvm18IntrusiveRefCntPtrIKN5clang4ento12ProgramStateEEENS6_4SValESA_RNS6_14CheckerContextEE3$_0E14_M_get_pointerERKSt9_Any_data"(ptr noundef nonnull align 8 dereferenceable(16) %0) #0 align 2 {
  %2 = alloca ptr, align 8
  %3 = alloca ptr, align 8
  store ptr %0, ptr %2, align 8
  %4 = load ptr, ptr %2, align 8
  %5 = call noundef nonnull align 8 dereferenceable(16) ptr @"_ZNKSt9_Any_data9_M_accessIZNK12_GLOBAL__N_116SmartPtrModeling10handleSwapEN4llvm18IntrusiveRefCntPtrIKN5clang4ento12ProgramStateEEENS6_4SValESA_RNS6_14CheckerContextEE3$_0EERKT_v"(ptr noundef nonnull align 8 dereferenceable(16) %4) #11
  store ptr %5, ptr %3, align 8
  %6 = load ptr, ptr %3, align 8
  ret ptr %6
}

; Function Attrs: mustprogress nounwind uwtable
define internal void @"_ZNSt17_Function_handlerIFvRN5clang4ento22PathSensitiveBugReportERN4llvm11raw_ostreamEEZNK12_GLOBAL__N_116SmartPtrModeling10handleSwapENS4_18IntrusiveRefCntPtrIKNS1_12ProgramStateEEENS1_4SValESE_RNS1_14CheckerContextEE3$_0E9_M_invokeERKSt9_Any_dataS3_S6_"(ptr noundef nonnull align 8 dereferenceable(16) %0, ptr noundef nonnull align 8 dereferenceable(1016) %1, ptr noundef nonnull align 8 dereferenceable(48) %2) #0 align 2 {
  %4 = alloca ptr, align 8
  %5 = alloca ptr, align 8
  %6 = alloca ptr, align 8
  store ptr %0, ptr %4, align 8
  store ptr %1, ptr %5, align 8
  store ptr %2, ptr %6, align 8
  %7 = load ptr, ptr %4, align 8
  %8 = call noundef ptr @"_ZNSt14_Function_base13_Base_managerIZNK12_GLOBAL__N_116SmartPtrModeling10handleSwapEN4llvm18IntrusiveRefCntPtrIKN5clang4ento12ProgramStateEEENS6_4SValESA_RNS6_14CheckerContextEE3$_0E14_M_get_pointerERKSt9_Any_data"(ptr noundef nonnull align 8 dereferenceable(16) %7) #11
  %9 = load ptr, ptr %5, align 8
  %10 = load ptr, ptr %6, align 8
  call void @"_ZSt10__invoke_rIvRZNK12_GLOBAL__N_116SmartPtrModeling10handleSwapEN4llvm18IntrusiveRefCntPtrIKN5clang4ento12ProgramStateEEENS5_4SValES9_RNS5_14CheckerContextEE3$_0JRNS5_22PathSensitiveBugReportERNS2_11raw_ostreamEEENSt9enable_ifIX16is_invocable_r_vIT_T0_DpT1_EESJ_E4typeEOSK_DpOSL_"(ptr noundef nonnull align 8 dereferenceable(16) %8, ptr noundef nonnull align 8 dereferenceable(1016) %9, ptr noundef nonnull align 8 dereferenceable(48) %10)
  ret void
}