; Function Attrs: mustprogress nounwind uwtable
define internal void @"_ZNSt17_Function_handlerIFvRN5clang4ento22PathSensitiveBugReportERN4llvm11raw_ostreamEEZNK12_GLOBAL__N_116SmartPtrModeling10handleSwapENS4_18IntrusiveRefCntPtrIKNS1_12ProgramStateEEENS1_4SValESE_RNS1_14CheckerContextEE3$_0E9_M_invokeERKSt9_Any_dataS3_S6_"(ptr nocapture noundef nonnull readonly align 8 dereferenceable(16) %0, ptr noundef nonnull align 8 dereferenceable(1016) %1, ptr nocapture nonnull readnone align 8 %2) #0 align 2 {
  %4 = getelementptr inbounds nuw i8, ptr %1, i64 16
  %5 = load ptr, ptr %4, align 8
  %6 = tail call noundef ptr @_ZN5clang4ento8smartptr25getNullDereferenceBugTypeEv() #17
  %.not.i.i.i = icmp eq ptr %5, %6
  br i1 %.not.i.i.i, label %7, label %"_ZSt10__invoke_rIvRZNK12_GLOBAL__N_116SmartPtrModeling10handleSwapEN4llvm18IntrusiveRefCntPtrIKN5clang4ento12ProgramStateEEENS5_4SValES9_RNS5_14CheckerContextEE3$_0JRNS5_22PathSensitiveBugReportERNS2_11raw_ostreamEEENSt9enable_ifIX16is_invocable_r_vIT_T0_DpT1_EESJ_E4typeEOSK_DpOSL_.exit"

7:                                                ; preds = %3
  %8 = load ptr, ptr %0, align 8
  %9 = tail call noundef zeroext i1 @_ZNK5clang4ento22PathSensitiveBugReport13isInterestingEPKNS0_9MemRegionE(ptr noundef nonnull align 8 dereferenceable(1016) %1, ptr noundef %8) #17
  br i1 %9, label %10, label %17

10:                                               ; preds = %7
  %11 = getelementptr inbounds nuw i8, ptr %0, i64 8
  %12 = load ptr, ptr %11, align 8
  %13 = tail call noundef zeroext i1 @_ZNK5clang4ento22PathSensitiveBugReport13isInterestingEPKNS0_9MemRegionE(ptr noundef nonnull align 8 dereferenceable(1016) %1, ptr noundef %12) #17
  br i1 %13, label %17, label %14

14:                                               ; preds = %10
  %15 = load ptr, ptr %11, align 8
  tail call void @_ZN5clang4ento22PathSensitiveBugReport15markInterestingEPKNS0_9MemRegionENS0_11bugreporter12TrackingKindE(ptr noundef nonnull align 8 dereferenceable(1016) %1, ptr noundef %15, i32 noundef 0) #17
  %16 = load ptr, ptr %0, align 8
  tail call void @_ZN5clang4ento22PathSensitiveBugReport18markNotInterestingEPKNS0_9MemRegionE(ptr noundef nonnull align 8 dereferenceable(1016) %1, ptr noundef %16) #17
  br label %17

17:                                               ; preds = %14, %10, %7
  %18 = getelementptr inbounds nuw i8, ptr %0, i64 8
  %19 = load ptr, ptr %18, align 8
  %20 = tail call noundef zeroext i1 @_ZNK5clang4ento22PathSensitiveBugReport13isInterestingEPKNS0_9MemRegionE(ptr noundef nonnull align 8 dereferenceable(1016) %1, ptr noundef %19) #17
  br i1 %20, label %21, label %"_ZSt10__invoke_rIvRZNK12_GLOBAL__N_116SmartPtrModeling10handleSwapEN4llvm18IntrusiveRefCntPtrIKN5clang4ento12ProgramStateEEENS5_4SValES9_RNS5_14CheckerContextEE3$_0JRNS5_22PathSensitiveBugReportERNS2_11raw_ostreamEEENSt9enable_ifIX16is_invocable_r_vIT_T0_DpT1_EESJ_E4typeEOSK_DpOSL_.exit"

21:                                               ; preds = %17
  %22 = load ptr, ptr %0, align 8
  %23 = tail call noundef zeroext i1 @_ZNK5clang4ento22PathSensitiveBugReport13isInterestingEPKNS0_9MemRegionE(ptr noundef nonnull align 8 dereferenceable(1016) %1, ptr noundef %22) #17
  br i1 %23, label %"_ZSt10__invoke_rIvRZNK12_GLOBAL__N_116SmartPtrModeling10handleSwapEN4llvm18IntrusiveRefCntPtrIKN5clang4ento12ProgramStateEEENS5_4SValES9_RNS5_14CheckerContextEE3$_0JRNS5_22PathSensitiveBugReportERNS2_11raw_ostreamEEENSt9enable_ifIX16is_invocable_r_vIT_T0_DpT1_EESJ_E4typeEOSK_DpOSL_.exit", label %24

24:                                               ; preds = %21
  %25 = load ptr, ptr %0, align 8
  tail call void @_ZN5clang4ento22PathSensitiveBugReport15markInterestingEPKNS0_9MemRegionENS0_11bugreporter12TrackingKindE(ptr noundef nonnull align 8 dereferenceable(1016) %1, ptr noundef %25, i32 noundef 0) #17
  %26 = load ptr, ptr %18, align 8
  tail call void @_ZN5clang4ento22PathSensitiveBugReport18markNotInterestingEPKNS0_9MemRegionE(ptr noundef nonnull align 8 dereferenceable(1016) %1, ptr noundef %26) #17
  br label %"_ZSt10__invoke_rIvRZNK12_GLOBAL__N_116SmartPtrModeling10handleSwapEN4llvm18IntrusiveRefCntPtrIKN5clang4ento12ProgramStateEEENS5_4SValES9_RNS5_14CheckerContextEE3$_0JRNS5_22PathSensitiveBugReportERNS2_11raw_ostreamEEENSt9enable_ifIX16is_invocable_r_vIT_T0_DpT1_EESJ_E4typeEOSK_DpOSL_.exit"

"_ZSt10__invoke_rIvRZNK12_GLOBAL__N_116SmartPtrModeling10handleSwapEN4llvm18IntrusiveRefCntPtrIKN5clang4ento12ProgramStateEEENS5_4SValES9_RNS5_14CheckerContextEE3$_0JRNS5_22PathSensitiveBugReportERNS2_11raw_ostreamEEENSt9enable_ifIX16is_invocable_r_vIT_T0_DpT1_EESJ_E4typeEOSK_DpOSL_.exit": ; preds = %3, %17, %21, %24
  ret void
}